; Function Attrs: mustprogress nounwind uwtable
define hidden void @_ZN19NullCheckEliminator10handle_PhiEP3Phi(ptr nocapture noundef nonnull readonly align 8 dereferenceable(88) %0, ptr noundef %1) local_unnamed_addr #1 align 2 {
  %3 = getelementptr inbounds i8, ptr %1, i64 24
  %4 = load ptr, ptr %3, align 8
  %5 = getelementptr inbounds i8, ptr %4, i64 12
  %6 = load i32, ptr %5, align 4
  %7 = icmp eq i32 %6, 8
  br i1 %7, label %.thread, label %.preheader

.preheader:                                       ; preds = %2
  %8 = tail call noundef i32 @_ZNK3Phi13operand_countEv(ptr noundef nonnull align 8 dereferenceable(104) %1) #14
  %9 = icmp sgt i32 %8, 0
  br i1 %9, label %.lr.ph, label %.critedge

.lr.ph:                                           ; preds = %.preheader
  %10 = getelementptr inbounds i8, ptr %0, i64 32
  br label %11

11:                                               ; preds = %.lr.ph, %11
  %.015 = phi i32 [ 0, %.lr.ph ], [ %24, %11 ]
  %.01114 = phi i1 [ true, %.lr.ph ], [ %spec.select, %11 ]
  %12 = tail call noundef ptr @_ZNK3Phi10operand_atEi(ptr noundef nonnull align 8 dereferenceable(104) %1, i32 noundef %.015) #14
  %13 = load ptr, ptr %10, align 8
  %14 = getelementptr inbounds i8, ptr %12, i64 8
  %15 = load i32, ptr %14, align 8
  %16 = sext i32 %15 to i64
  %17 = load ptr, ptr %13, align 8
  %18 = lshr i64 %16, 6
  %19 = getelementptr inbounds i64, ptr %17, i64 %18
  %20 = load i64, ptr %19, align 8
  %21 = and i64 %16, 63
  %22 = shl nuw i64 1, %21
  %23 = and i64 %22, %20
  %.not = icmp ne i64 %23, 0
  %spec.select = select i1 %.not, i1 %.01114, i1 false
  %24 = add nuw nsw i32 %.015, 1
  %25 = tail call noundef i32 @_ZNK3Phi13operand_countEv(ptr noundef nonnull align 8 dereferenceable(104) %1) #14
  %26 = icmp slt i32 %24, %25
  br i1 %26, label %11, label %._crit_edge, !llvm.loop !17

._crit_edge:                                      ; preds = %11
  br i1 %spec.select, label %.critedge, label %.thread

.critedge:                                        ; preds = %.preheader, %._crit_edge
  %27 = getelementptr inbounds i8, ptr %1, i64 56
  %28 = load i32, ptr %27, align 8
  %29 = and i32 %28, -2
  store i32 %29, ptr %27, align 8
  br label %45

.thread:                                          ; preds = %2, %._crit_edge
  %30 = getelementptr inbounds i8, ptr %0, i64 32
  %31 = load ptr, ptr %30, align 8
  %32 = getelementptr inbounds i8, ptr %1, i64 8
  %33 = load i32, ptr %32, align 8
  %34 = sext i32 %33 to i64
  %35 = load ptr, ptr %31, align 8
  %36 = lshr i64 %34, 6
  %37 = getelementptr inbounds i64, ptr %35, i64 %36
  %38 = load i64, ptr %37, align 8
  %39 = and i64 %34, 63
  %40 = shl nuw i64 1, %39
  %41 = and i64 %40, %38
  %.not13 = icmp eq i64 %41, 0
  br i1 %.not13, label %45, label %42

42:                                               ; preds = %.thread
  %43 = xor i64 %40, -1
  %44 = and i64 %38, %43
  store i64 %44, ptr %37, align 8
  br label %45

45:                                               ; preds = %.thread, %42, %.critedge
  ret void
}